target datalayout = "e-m:e-p270:32:32-p271:32:32-p272:64:64-i64:64-i128:128-f80:128-n8:16:32:64-S128"
target triple = "x86_64-pc-linux-gnu"

%struct.GCtab = type { %struct.GCRef, i8, i8, i8, i8, %struct.MRef, %struct.GCRef, %struct.GCRef, %struct.MRef, i32, i32, %struct.MRef }
%struct.GCRef = type { i64 }
%struct.MRef = type { i64 }
%struct.lua_State = type { %struct.GCRef, i8, i8, i8, i8, %struct.MRef, %struct.GCRef, ptr, ptr, %struct.MRef, %struct.MRef, %struct.GCRef, %struct.GCRef, ptr, i32 }
%struct.global_State = type { ptr, ptr, %struct.GCState, %struct.GCstr, i8, i8, i8, i8, %struct.StrInternState, i32, %struct.GCRef, %struct.SBuf, %union.TValue, %union.TValue, %struct.Node, %union.TValue, %struct.GCupval, i32, i32, ptr, ptr, ptr, i32, i32, %struct.GCRef, %struct.MRef, %struct.MRef, %struct.PRNGState, [39 x %struct.GCRef] }
%struct.GCState = type { i64, i64, i8, i8, i8, i8, i32, %struct.GCRef, %struct.MRef, %struct.GCRef, %struct.GCRef, %struct.GCRef, %struct.GCRef, i64, i64, i32, i32, %struct.MRef }
%struct.GCstr = type { %struct.GCRef, i8, i8, i8, i8, i32, i32, i32 }
%struct.StrInternState = type { ptr, i32, i32, i32, i8, i8, i8, i8, i64 }
%struct.SBuf = type { ptr, ptr, ptr, %struct.MRef }
%struct.Node = type { %union.TValue, %union.TValue, %struct.MRef }
%union.TValue = type { i64 }
%struct.GCupval = type { %struct.GCRef, i8, i8, i8, i8, %union.anon, %struct.MRef, i32 }
%union.anon = type { %struct.anon.1 }
%struct.anon.1 = type { %struct.GCRef, %struct.GCRef }
%struct.PRNGState = type { [4 x i64] }

; Function Attrs: alwaysinline nounwind uwtable
define internal void @newhpart(ptr noundef %0, ptr noundef %1, i32 noundef %2) #2 {
  %4 = alloca ptr, align 8
  %5 = alloca ptr, align 8
  %6 = alloca i32, align 4
  %7 = alloca i32, align 4
  %8 = alloca ptr, align 8
  store ptr %0, ptr %4, align 8, !tbaa !4
  store ptr %1, ptr %5, align 8, !tbaa !11
  store i32 %2, ptr %6, align 4, !tbaa !9
  call void @llvm.lifetime.start.p0(i64 4, ptr %7) #9
  call void @llvm.lifetime.start.p0(i64 8, ptr %8) #9
  %9 = load i32, ptr %6, align 4, !tbaa !9
  %10 = icmp ugt i32 %9, 26
  br i1 %10, label %11, label %13

11:                                               ; preds = %3
  %12 = load ptr, ptr %4, align 8, !tbaa !4
  call void @lj_err_msg(ptr noundef %12, i32 noundef 139) #10
  unreachable

13:                                               ; preds = %3
  %14 = load i32, ptr %6, align 4, !tbaa !9
  %15 = shl i32 1, %14
  store i32 %15, ptr %7, align 4, !tbaa !9
  %16 = load ptr, ptr %4, align 8, !tbaa !4
  %17 = load i32, ptr %7, align 4, !tbaa !9
  %18 = zext i32 %17 to i64
  %19 = mul i64 %18, 24
  %20 = call ptr @lj_mem_realloc(ptr noundef %16, ptr noundef null, i64 noundef 0, i64 noundef %19)
  store ptr %20, ptr %8, align 8, !tbaa !27
  %21 = load ptr, ptr %8, align 8, !tbaa !27
  %22 = ptrtoint ptr %21 to i64
  %23 = load ptr, ptr %5, align 8, !tbaa !11
  %24 = getelementptr inbounds nuw %struct.GCtab, ptr %23, i32 0, i32 8
  %25 = getelementptr inbounds nuw %struct.MRef, ptr %24, i32 0, i32 0
  store i64 %22, ptr %25, align 8, !tbaa !29
  %26 = load ptr, ptr %8, align 8, !tbaa !27
  %27 = load i32, ptr %7, align 4, !tbaa !9
  %28 = zext i32 %27 to i64
  %29 = getelementptr inbounds nuw %struct.Node, ptr %26, i64 %28
  %30 = ptrtoint ptr %29 to i64
  %31 = load ptr, ptr %5, align 8, !tbaa !11
  %32 = getelementptr inbounds nuw %struct.GCtab, ptr %31, i32 0, i32 11
  %33 = getelementptr inbounds nuw %struct.MRef, ptr %32, i32 0, i32 0
  store i64 %30, ptr %33, align 8, !tbaa !30
  %34 = load i32, ptr %7, align 4, !tbaa !9
  %35 = sub i32 %34, 1
  %36 = load ptr, ptr %5, align 8, !tbaa !11
  %37 = getelementptr inbounds nuw %struct.GCtab, ptr %36, i32 0, i32 10
  store i32 %35, ptr %37, align 4, !tbaa !13
  call void @llvm.lifetime.end.p0(i64 8, ptr %8) #9
  call void @llvm.lifetime.end.p0(i64 4, ptr %7) #9
  ret void
}

; Function Attrs: nounwind uwtable
define internal ptr @newtab(ptr noundef %0, i32 noundef %1, i32 noundef %2) #0 {
  %4 = alloca ptr, align 8
  %5 = alloca i32, align 4
  %6 = alloca i32, align 4
  %7 = alloca ptr, align 8
  %8 = alloca ptr, align 8
  %9 = alloca ptr, align 8
  store ptr %0, ptr %4, align 8, !tbaa !4
  store i32 %1, ptr %5, align 4, !tbaa !9
  store i32 %2, ptr %6, align 4, !tbaa !9
  call void @llvm.lifetime.start.p0(i64 8, ptr %7) #9
  %10 = load i32, ptr %5, align 4, !tbaa !9
  %11 = icmp ugt i32 %10, 0
  br i1 %11, label %12, label %60

12:                                               ; preds = %3
  %13 = load i32, ptr %5, align 4, !tbaa !9
  %14 = icmp ule i32 %13, 16
  br i1 %14, label %15, label %60

15:                                               ; preds = %12
  call void @llvm.lifetime.start.p0(i64 8, ptr %8) #9
  %16 = load ptr, ptr %4, align 8, !tbaa !4
  %17 = load i32, ptr %5, align 4, !tbaa !9
  %18 = zext i32 %17 to i64
  %19 = mul i64 %18, 8
  %20 = add i64 %19, 64
  %21 = call ptr @lj_mem_newgco(ptr noundef %16, i64 noundef %20)
  store ptr %21, ptr %7, align 8, !tbaa !11
  %22 = load ptr, ptr %7, align 8, !tbaa !11
  %23 = getelementptr inbounds nuw %struct.GCtab, ptr %22, i32 0, i32 2
  store i8 11, ptr %23, align 1, !tbaa !18
  %24 = load ptr, ptr %7, align 8, !tbaa !11
  %25 = getelementptr inbounds nuw %struct.GCtab, ptr %24, i32 0, i32 3
  store i8 -1, ptr %25, align 2, !tbaa !19
  %26 = load i32, ptr %5, align 4, !tbaa !9
  %27 = trunc i32 %26 to i8
  %28 = load ptr, ptr %7, align 8, !tbaa !11
  %29 = getelementptr inbounds nuw %struct.GCtab, ptr %28, i32 0, i32 4
  store i8 %27, ptr %29, align 1, !tbaa !20
  %30 = load ptr, ptr %7, align 8, !tbaa !11
  %31 = getelementptr inbounds nuw i8, ptr %30, i64 64
  %32 = ptrtoint ptr %31 to i64
  %33 = load ptr, ptr %7, align 8, !tbaa !11
  %34 = getelementptr inbounds nuw %struct.GCtab, ptr %33, i32 0, i32 5
  %35 = getelementptr inbounds nuw %struct.MRef, ptr %34, i32 0, i32 0
  store i64 %32, ptr %35, align 8, !tbaa !21
  %36 = load ptr, ptr %7, align 8, !tbaa !11
  %37 = getelementptr inbounds nuw %struct.GCtab, ptr %36, i32 0, i32 7
  %38 = getelementptr inbounds nuw %struct.GCRef, ptr %37, i32 0, i32 0
  store i64 0, ptr %38, align 8, !tbaa !22
  %39 = load i32, ptr %5, align 4, !tbaa !9
  %40 = load ptr, ptr %7, align 8, !tbaa !11
  %41 = getelementptr inbounds nuw %struct.GCtab, ptr %40, i32 0, i32 9
  store i32 %39, ptr %41, align 8, !tbaa !23
  %42 = load ptr, ptr %7, align 8, !tbaa !11
  %43 = getelementptr inbounds nuw %struct.GCtab, ptr %42, i32 0, i32 10
  store i32 0, ptr %43, align 4, !tbaa !13
  %44 = load ptr, ptr %4, align 8, !tbaa !4
  %45 = getelementptr inbounds nuw %struct.lua_State, ptr %44, i32 0, i32 5
  %46 = getelementptr inbounds nuw %struct.MRef, ptr %45, i32 0, i32 0
  %47 = load i64, ptr %46, align 8, !tbaa !24
  %48 = inttoptr i64 %47 to ptr
  %49 = getelementptr inbounds nuw %struct.global_State, ptr %48, i32 0, i32 14
  store ptr %49, ptr %8, align 8, !tbaa !27
  %50 = load ptr, ptr %8, align 8, !tbaa !27
  %51 = ptrtoint ptr %50 to i64
  %52 = load ptr, ptr %7, align 8, !tbaa !11
  %53 = getelementptr inbounds nuw %struct.GCtab, ptr %52, i32 0, i32 8
  %54 = getelementptr inbounds nuw %struct.MRef, ptr %53, i32 0, i32 0
  store i64 %51, ptr %54, align 8, !tbaa !29
  %55 = load ptr, ptr %8, align 8, !tbaa !27
  %56 = ptrtoint ptr %55 to i64
  %57 = load ptr, ptr %7, align 8, !tbaa !11
  %58 = getelementptr inbounds nuw %struct.GCtab, ptr %57, i32 0, i32 11
  %59 = getelementptr inbounds nuw %struct.MRef, ptr %58, i32 0, i32 0
  store i64 %56, ptr %59, align 8, !tbaa !30
  call void @llvm.lifetime.end.p0(i64 8, ptr %8) #9
  br label %116

60:                                               ; preds = %12, %3
  call void @llvm.lifetime.start.p0(i64 8, ptr %9) #9
  %61 = load ptr, ptr %4, align 8, !tbaa !4
  %62 = call ptr @lj_mem_newgco(ptr noundef %61, i64 noundef 64)
  store ptr %62, ptr %7, align 8, !tbaa !11
  %63 = load ptr, ptr %7, align 8, !tbaa !11
  %64 = getelementptr inbounds nuw %struct.GCtab, ptr %63, i32 0, i32 2
  store i8 11, ptr %64, align 1, !tbaa !18
  %65 = load ptr, ptr %7, align 8, !tbaa !11
  %66 = getelementptr inbounds nuw %struct.GCtab, ptr %65, i32 0, i32 3
  store i8 -1, ptr %66, align 2, !tbaa !19
  %67 = load ptr, ptr %7, align 8, !tbaa !11
  %68 = getelementptr inbounds nuw %struct.GCtab, ptr %67, i32 0, i32 4
  store i8 0, ptr %68, align 1, !tbaa !20
  %69 = load ptr, ptr %7, align 8, !tbaa !11
  %70 = getelementptr inbounds nuw %struct.GCtab, ptr %69, i32 0, i32 5
  %71 = getelementptr inbounds nuw %struct.MRef, ptr %70, i32 0, i32 0
  store i64 0, ptr %71, align 8, !tbaa !21
  %72 = load ptr, ptr %7, align 8, !tbaa !11
  %73 = getelementptr inbounds nuw %struct.GCtab, ptr %72, i32 0, i32 7
  %74 = getelementptr inbounds nuw %struct.GCRef, ptr %73, i32 0, i32 0
  store i64 0, ptr %74, align 8, !tbaa !22
  %75 = load ptr, ptr %7, align 8, !tbaa !11
  %76 = getelementptr inbounds nuw %struct.GCtab, ptr %75, i32 0, i32 9
  store i32 0, ptr %76, align 8, !tbaa !23
  %77 = load ptr, ptr %7, align 8, !tbaa !11
  %78 = getelementptr inbounds nuw %struct.GCtab, ptr %77, i32 0, i32 10
  store i32 0, ptr %78, align 4, !tbaa !13
  %79 = load ptr, ptr %4, align 8, !tbaa !4
  %80 = getelementptr inbounds nuw %struct.lua_State, ptr %79, i32 0, i32 5
  %81 = getelementptr inbounds nuw %struct.MRef, ptr %80, i32 0, i32 0
  %82 = load i64, ptr %81, align 8, !tbaa !24
  %83 = inttoptr i64 %82 to ptr
  %84 = getelementptr inbounds nuw %struct.global_State, ptr %83, i32 0, i32 14
  store ptr %84, ptr %9, align 8, !tbaa !27
  %85 = load ptr, ptr %9, align 8, !tbaa !27
  %86 = ptrtoint ptr %85 to i64
  %87 = load ptr, ptr %7, align 8, !tbaa !11
  %88 = getelementptr inbounds nuw %struct.GCtab, ptr %87, i32 0, i32 8
  %89 = getelementptr inbounds nuw %struct.MRef, ptr %88, i32 0, i32 0
  store i64 %86, ptr %89, align 8, !tbaa !29
  %90 = load ptr, ptr %9, align 8, !tbaa !27
  %91 = ptrtoint ptr %90 to i64
  %92 = load ptr, ptr %7, align 8, !tbaa !11
  %93 = getelementptr inbounds nuw %struct.GCtab, ptr %92, i32 0, i32 11
  %94 = getelementptr inbounds nuw %struct.MRef, ptr %93, i32 0, i32 0
  store i64 %91, ptr %94, align 8, !tbaa !30
  %95 = load i32, ptr %5, align 4, !tbaa !9
  %96 = icmp ugt i32 %95, 0
  br i1 %96, label %97, label %115

97:                                               ; preds = %60
  %98 = load i32, ptr %5, align 4, !tbaa !9
  %99 = icmp ugt i32 %98, 134217729
  br i1 %99, label %100, label %102

100:                                              ; preds = %97
  %101 = load ptr, ptr %4, align 8, !tbaa !4
  call void @lj_err_msg(ptr noundef %101, i32 noundef 139) #10
  unreachable

102:                                              ; preds = %97
  %103 = load ptr, ptr %4, align 8, !tbaa !4
  %104 = load i32, ptr %5, align 4, !tbaa !9
  %105 = zext i32 %104 to i64
  %106 = mul i64 %105, 8
  %107 = call ptr @lj_mem_realloc(ptr noundef %103, ptr noundef null, i64 noundef 0, i64 noundef %106)
  %108 = ptrtoint ptr %107 to i64
  %109 = load ptr, ptr %7, align 8, !tbaa !11
  %110 = getelementptr inbounds nuw %struct.GCtab, ptr %109, i32 0, i32 5
  %111 = getelementptr inbounds nuw %struct.MRef, ptr %110, i32 0, i32 0
  store i64 %108, ptr %111, align 8, !tbaa !21
  %112 = load i32, ptr %5, align 4, !tbaa !9
  %113 = load ptr, ptr %7, align 8, !tbaa !11
  %114 = getelementptr inbounds nuw %struct.GCtab, ptr %113, i32 0, i32 9
  store i32 %112, ptr %114, align 8, !tbaa !23
  br label %115

115:                                              ; preds = %102, %60
  call void @llvm.lifetime.end.p0(i64 8, ptr %9) #9
  br label %116

116:                                              ; preds = %115, %15
  %117 = load i32, ptr %6, align 4, !tbaa !9
  %118 = icmp ne i32 %117, 0
  br i1 %118, label %119, label %123

119:                                              ; preds = %116
  %120 = load ptr, ptr %4, align 8, !tbaa !4
  %121 = load ptr, ptr %7, align 8, !tbaa !11
  %122 = load i32, ptr %6, align 4, !tbaa !9
  call void @newhpart(ptr noundef %120, ptr noundef %121, i32 noundef %122)
  br label %123

123:                                              ; preds = %119, %116
  %124 = load ptr, ptr %7, align 8, !tbaa !11
  call void @llvm.lifetime.end.p0(i64 8, ptr %7) #9
  ret ptr %124
}