; Function Attrs: nounwind uwtable
define internal fastcc ptr @newtab(ptr noundef %0, i32 noundef %1, i32 noundef %2) unnamed_addr #0 {
  %4 = add i32 %1, -1
  %or.cond = icmp ult i32 %4, 16
  br i1 %or.cond, label %5, label %24

5:                                                ; preds = %3
  %6 = shl nuw nsw i32 %1, 3
  %narrow = add nuw nsw i32 %6, 64
  %7 = zext nneg i32 %narrow to i64
  %8 = tail call ptr @lj_mem_newgco(ptr noundef %0, i64 noundef %7) #11
  %9 = getelementptr inbounds nuw i8, ptr %8, i64 9
  store i8 11, ptr %9, align 1, !tbaa !20
  %10 = getelementptr inbounds nuw i8, ptr %8, i64 10
  store i8 -1, ptr %10, align 2, !tbaa !21
  %11 = trunc nuw nsw i32 %1 to i8
  %12 = getelementptr inbounds nuw i8, ptr %8, i64 11
  store i8 %11, ptr %12, align 1, !tbaa !22
  %13 = getelementptr inbounds nuw i8, ptr %8, i64 64
  %14 = ptrtoint ptr %13 to i64
  %15 = getelementptr inbounds nuw i8, ptr %8, i64 16
  store i64 %14, ptr %15, align 8, !tbaa !12
  %16 = getelementptr inbounds nuw i8, ptr %8, i64 32
  store i64 0, ptr %16, align 8, !tbaa !23
  %17 = getelementptr inbounds nuw i8, ptr %8, i64 48
  store i32 %1, ptr %17, align 8, !tbaa !4
  %18 = getelementptr inbounds nuw i8, ptr %8, i64 52
  store i32 0, ptr %18, align 4, !tbaa !14
  %19 = getelementptr inbounds nuw i8, ptr %0, i64 16
  %20 = load i64, ptr %19, align 8, !tbaa !24
  %21 = add nuw i64 %20, 248
  %22 = getelementptr inbounds nuw i8, ptr %8, i64 40
  store i64 %21, ptr %22, align 8, !tbaa !15
  %23 = getelementptr inbounds nuw i8, ptr %8, i64 56
  store i64 %21, ptr %23, align 8, !tbaa !28
  br label %46

24:                                               ; preds = %3
  %.not = icmp eq i32 %1, 0
  %25 = tail call ptr @lj_mem_newgco(ptr noundef %0, i64 noundef 64) #11
  %26 = getelementptr inbounds nuw i8, ptr %25, i64 9
  store i8 11, ptr %26, align 1, !tbaa !20
  %27 = getelementptr inbounds nuw i8, ptr %25, i64 10
  store i8 -1, ptr %27, align 2, !tbaa !21
  %28 = getelementptr inbounds nuw i8, ptr %25, i64 11
  store i8 0, ptr %28, align 1, !tbaa !22
  %29 = getelementptr inbounds nuw i8, ptr %25, i64 16
  store i64 0, ptr %29, align 8, !tbaa !12
  %30 = getelementptr inbounds nuw i8, ptr %25, i64 32
  store i64 0, ptr %30, align 8, !tbaa !23
  %31 = getelementptr inbounds nuw i8, ptr %25, i64 48
  store i32 0, ptr %31, align 8, !tbaa !4
  %32 = getelementptr inbounds nuw i8, ptr %25, i64 52
  store i32 0, ptr %32, align 4, !tbaa !14
  %33 = getelementptr inbounds nuw i8, ptr %0, i64 16
  %34 = load i64, ptr %33, align 8, !tbaa !24
  %35 = add nuw i64 %34, 248
  %36 = getelementptr inbounds nuw i8, ptr %25, i64 40
  store i64 %35, ptr %36, align 8, !tbaa !15
  %37 = getelementptr inbounds nuw i8, ptr %25, i64 56
  store i64 %35, ptr %37, align 8, !tbaa !28
  br i1 %.not, label %46, label %38

38:                                               ; preds = %24
  %39 = icmp ugt i32 %1, 134217729
  br i1 %39, label %40, label %41

40:                                               ; preds = %38
  tail call void @lj_err_msg(ptr noundef nonnull %0, i32 noundef 139) #12
  unreachable

41:                                               ; preds = %38
  %42 = shl nuw nsw i32 %1, 3
  %43 = zext nneg i32 %42 to i64
  %44 = tail call ptr @lj_mem_realloc(ptr noundef nonnull %0, ptr noundef null, i64 noundef 0, i64 noundef %43) #11
  %45 = ptrtoint ptr %44 to i64
  store i64 %45, ptr %29, align 8, !tbaa !12
  store i32 %1, ptr %31, align 8, !tbaa !4
  br label %46

46:                                               ; preds = %24, %41, %5
  %.0 = phi ptr [ %8, %5 ], [ %25, %41 ], [ %25, %24 ]
  %.not47 = icmp eq i32 %2, 0
  br i1 %.not47, label %62, label %47

47:                                               ; preds = %46
  %48 = icmp ugt i32 %2, 26
  br i1 %48, label %49, label %newhpart.exit

49:                                               ; preds = %47
  tail call void @lj_err_msg(ptr noundef nonnull %0, i32 noundef 139) #12
  unreachable

newhpart.exit:                                    ; preds = %47
  %50 = shl nuw nsw i32 1, %2
  %51 = zext nneg i32 %50 to i64
  %52 = zext nneg i32 %2 to i64
  %53 = shl nuw nsw i64 24, %52
  %54 = tail call ptr @lj_mem_realloc(ptr noundef nonnull %0, ptr noundef null, i64 noundef 0, i64 noundef %53) #11
  %55 = ptrtoint ptr %54 to i64
  %56 = getelementptr inbounds nuw i8, ptr %.0, i64 40
  store i64 %55, ptr %56, align 8, !tbaa !15
  %57 = getelementptr inbounds nuw %struct.Node, ptr %54, i64 %51
  %58 = ptrtoint ptr %57 to i64
  %59 = getelementptr inbounds nuw i8, ptr %.0, i64 56
  store i64 %58, ptr %59, align 8, !tbaa !28
  %60 = add nsw i32 %50, -1
  %61 = getelementptr inbounds nuw i8, ptr %.0, i64 52
  store i32 %60, ptr %61, align 4, !tbaa !14
  br label %62

62:                                               ; preds = %newhpart.exit, %46
  ret ptr %.0
}